target datalayout = "e-m:e-p270:32:32-p271:32:32-p272:64:64-i64:64-i128:128-f80:128-n8:16:32:64-S128"
target triple = "x86_64-pc-linux-gnu"

%struct.AVIOInterruptCB = type { ptr, ptr }
%struct.Muxer = type { %struct.OutputFile, [32 x i8], ptr, ptr, i32, ptr, i32, ptr, ptr, i64, i64, i32, ptr, ptr }
%struct.OutputFile = type { ptr, i32, ptr, ptr, i32, i64, i64, i32 }
%struct.AVFormatContext = type { ptr, ptr, ptr, ptr, ptr, i32, i32, ptr, i32, ptr, i32, ptr, ptr, i64, i64, i64, i32, i32, i32, i64, i64, ptr, i32, i32, ptr, i32, i32, i32, i32, ptr, i64, i32, i32, %struct.AVIOInterruptCB, i32, i32, i32, i32, i64, i32, i32, i32, i32, i32, i32, i32, i32, i32, i32, i32, i32, i64, i32, i32, i32, i32, i32, ptr, ptr, ptr, ptr, i32, ptr, ptr, ptr, ptr, i32, ptr, ptr, i64, ptr, ptr, ptr, i64 }
%struct.AVRational = type { i32, i32 }
%struct.InputStream = type { ptr, ptr, i32, ptr, i32, ptr, ptr, ptr, %struct.AVRational, i32, i32, ptr, i32 }
%struct.AVStream = type { ptr, i32, i32, ptr, ptr, %struct.AVRational, i64, i64, i64, i32, i32, %struct.AVRational, ptr, %struct.AVRational, %struct.AVPacket, i32, %struct.AVRational, i32 }
%struct.AVPacket = type { ptr, i64, i64, ptr, i32, i32, i32, ptr, i32, i64, i64, ptr, ptr, %struct.AVRational }
%struct.AVChannelLayout = type { i32, i32, %union.anon, ptr }
%union.anon = type { i64 }
%struct.AVCodecParameters = type { i32, i32, i32, ptr, i32, ptr, i32, i32, i64, i32, i32, i32, i32, i32, i32, %struct.AVRational, %struct.AVRational, i32, i32, i32, i32, i32, i32, i32, %struct.AVChannelLayout, i32, i32, i32, i32, i32, i32 }

; Function Attrs: nounwind uwtable
define internal i32 @map_auto_data(ptr noundef %0, ptr noundef %1) #0 {
  %3 = alloca i32, align 4
  %4 = alloca ptr, align 8
  %5 = alloca ptr, align 8
  %6 = alloca ptr, align 8
  %7 = alloca i32, align 4
  %8 = alloca i32, align 4
  %9 = alloca ptr, align 8
  %10 = alloca i32, align 4
  store ptr %0, ptr %4, align 8, !tbaa !34
  store ptr %1, ptr %5, align 8, !tbaa !13
  call void @llvm.lifetime.start.p0(i64 8, ptr %6) #12
  %11 = load ptr, ptr %4, align 8, !tbaa !34
  %12 = getelementptr inbounds nuw %struct.Muxer, ptr %11, i32 0, i32 2
  %13 = load ptr, ptr %12, align 8, !tbaa !58
  store ptr %13, ptr %6, align 8, !tbaa !57
  call void @llvm.lifetime.start.p0(i64 4, ptr %7) #12
  %14 = load ptr, ptr %6, align 8, !tbaa !57
  %15 = getelementptr inbounds nuw %struct.AVFormatContext, ptr %14, i32 0, i32 2
  %16 = load ptr, ptr %15, align 8, !tbaa !59
  %17 = load ptr, ptr %6, align 8, !tbaa !57
  %18 = getelementptr inbounds nuw %struct.AVFormatContext, ptr %17, i32 0, i32 12
  %19 = load ptr, ptr %18, align 8, !tbaa !86
  %20 = call i32 @av_guess_codec(ptr noundef %16, ptr noundef null, ptr noundef %19, ptr noundef null, i32 noundef 2)
  store i32 %20, ptr %7, align 4, !tbaa !4
  %21 = load i32, ptr %7, align 4, !tbaa !4
  %22 = icmp eq i32 %21, 0
  br i1 %22, label %23, label %24

23:                                               ; preds = %2
  store i32 0, ptr %3, align 4
  store i32 1, ptr %8, align 4
  br label %75

24:                                               ; preds = %2
  call void @llvm.lifetime.start.p0(i64 8, ptr %9) #12
  %25 = call ptr @ist_iter(ptr noundef null)
  store ptr %25, ptr %9, align 8, !tbaa !255
  br label %26

26:                                               ; preds = %69, %24
  %27 = load ptr, ptr %9, align 8, !tbaa !255
  %28 = icmp ne ptr %27, null
  br i1 %28, label %30, label %29

29:                                               ; preds = %26
  store i32 2, ptr %8, align 4
  br label %72

30:                                               ; preds = %26
  %31 = load ptr, ptr %9, align 8, !tbaa !255
  %32 = getelementptr inbounds nuw %struct.InputStream, ptr %31, i32 0, i32 4
  %33 = load i32, ptr %32, align 8, !tbaa !259
  %34 = icmp eq i32 %33, 48
  br i1 %34, label %35, label %36

35:                                               ; preds = %30
  br label %69

36:                                               ; preds = %30
  %37 = load ptr, ptr %9, align 8, !tbaa !255
  %38 = getelementptr inbounds nuw %struct.InputStream, ptr %37, i32 0, i32 3
  %39 = load ptr, ptr %38, align 8, !tbaa !191
  %40 = getelementptr inbounds nuw %struct.AVStream, ptr %39, i32 0, i32 3
  %41 = load ptr, ptr %40, align 8, !tbaa !260
  %42 = getelementptr inbounds nuw %struct.AVCodecParameters, ptr %41, i32 0, i32 0
  %43 = load i32, ptr %42, align 8, !tbaa !261
  %44 = icmp eq i32 %43, 2
  br i1 %44, label %45, label %68

45:                                               ; preds = %36
  %46 = load ptr, ptr %9, align 8, !tbaa !255
  %47 = getelementptr inbounds nuw %struct.InputStream, ptr %46, i32 0, i32 3
  %48 = load ptr, ptr %47, align 8, !tbaa !191
  %49 = getelementptr inbounds nuw %struct.AVStream, ptr %48, i32 0, i32 3
  %50 = load ptr, ptr %49, align 8, !tbaa !260
  %51 = getelementptr inbounds nuw %struct.AVCodecParameters, ptr %50, i32 0, i32 1
  %52 = load i32, ptr %51, align 4, !tbaa !271
  %53 = load i32, ptr %7, align 4, !tbaa !4
  %54 = icmp eq i32 %52, %53
  br i1 %54, label %55, label %68

55:                                               ; preds = %45
  call void @llvm.lifetime.start.p0(i64 4, ptr %10) #12
  %56 = load ptr, ptr %4, align 8, !tbaa !34
  %57 = load ptr, ptr %5, align 8, !tbaa !13
  %58 = load ptr, ptr %9, align 8, !tbaa !255
  %59 = call i32 @ost_add(ptr noundef %56, ptr noundef %57, i32 noundef 2, ptr noundef %58, ptr noundef null, ptr noundef null, ptr noundef null)
  store i32 %59, ptr %10, align 4, !tbaa !4
  %60 = load i32, ptr %10, align 4, !tbaa !4
  %61 = icmp slt i32 %60, 0
  br i1 %61, label %62, label %64

62:                                               ; preds = %55
  %63 = load i32, ptr %10, align 4, !tbaa !4
  store i32 %63, ptr %3, align 4
  store i32 1, ptr %8, align 4
  br label %65

64:                                               ; preds = %55
  store i32 0, ptr %8, align 4
  br label %65

65:                                               ; preds = %64, %62
  call void @llvm.lifetime.end.p0(i64 4, ptr %10) #12
  %66 = load i32, ptr %8, align 4
  switch i32 %66, label %72 [
    i32 0, label %67
  ]

67:                                               ; preds = %65
  br label %68

68:                                               ; preds = %67, %45, %36
  br label %69

69:                                               ; preds = %68, %35
  %70 = load ptr, ptr %9, align 8, !tbaa !255
  %71 = call ptr @ist_iter(ptr noundef %70)
  store ptr %71, ptr %9, align 8, !tbaa !255
  br label %26, !llvm.loop !272

72:                                               ; preds = %65, %29
  call void @llvm.lifetime.end.p0(i64 8, ptr %9) #12
  %73 = load i32, ptr %8, align 4
  switch i32 %73, label %75 [
    i32 2, label %74
  ]

74:                                               ; preds = %72
  store i32 0, ptr %3, align 4
  store i32 1, ptr %8, align 4
  br label %75

75:                                               ; preds = %74, %72, %23
  call void @llvm.lifetime.end.p0(i64 4, ptr %7) #12
  call void @llvm.lifetime.end.p0(i64 8, ptr %6) #12
  %76 = load i32, ptr %3, align 4
  ret i32 %76
}