; Function Attrs: nounwind uwtable
define internal range(i32 -2147483648, 1) i32 @map_auto_data(ptr noundef %0, ptr noundef %1) #0 {
  %3 = getelementptr inbounds nuw i8, ptr %0, i64 96
  %4 = load ptr, ptr %3, align 8, !tbaa !51
  %5 = getelementptr inbounds nuw i8, ptr %4, i64 16
  %6 = load ptr, ptr %5, align 8, !tbaa !52
  %7 = getelementptr inbounds nuw i8, ptr %4, i64 88
  %8 = load ptr, ptr %7, align 8, !tbaa !181
  %9 = tail call i32 @av_guess_codec(ptr noundef %6, ptr noundef null, ptr noundef %8, ptr noundef null, i32 noundef 2) #16
  %10 = icmp eq i32 %9, 0
  br i1 %10, label %.loopexit, label %11

11:                                               ; preds = %2
  %12 = tail call ptr @ist_iter(ptr noundef null) #16
  %.not23 = icmp eq ptr %12, null
  br i1 %.not23, label %.loopexit, label %.lr.ph

.lr.ph:                                           ; preds = %11, %30
  %.01824 = phi ptr [ %31, %30 ], [ %12, %11 ]
  %13 = getelementptr inbounds nuw i8, ptr %.01824, i64 32
  %14 = load i32, ptr %13, align 8, !tbaa !121
  %15 = icmp eq i32 %14, 48
  br i1 %15, label %30, label %16

16:                                               ; preds = %.lr.ph
  %17 = getelementptr inbounds nuw i8, ptr %.01824, i64 24
  %18 = load ptr, ptr %17, align 8, !tbaa !127
  %19 = getelementptr inbounds nuw i8, ptr %18, i64 16
  %20 = load ptr, ptr %19, align 8, !tbaa !128
  %21 = load i32, ptr %20, align 8, !tbaa !133
  %22 = icmp eq i32 %21, 2
  br i1 %22, label %23, label %30

23:                                               ; preds = %16
  %24 = getelementptr inbounds nuw i8, ptr %20, i64 4
  %25 = load i32, ptr %24, align 4, !tbaa !354
  %26 = icmp eq i32 %25, %9
  br i1 %26, label %27, label %30

27:                                               ; preds = %23
  %28 = tail call fastcc i32 @ost_add(ptr noundef %0, ptr noundef %1, i32 noundef 2, ptr noundef nonnull %.01824, ptr noundef null, ptr noundef null, ptr noundef null)
  %29 = icmp sgt i32 %28, -1
  br i1 %29, label %30, label %.loopexit

30:                                               ; preds = %16, %23, %27, %.lr.ph
  %31 = tail call ptr @ist_iter(ptr noundef nonnull %.01824) #16
  %.not = icmp eq ptr %31, null
  br i1 %.not, label %.loopexit, label %.lr.ph, !llvm.loop !355

.loopexit:                                        ; preds = %30, %27, %11, %2
  %.0 = phi i32 [ 0, %2 ], [ 0, %11 ], [ 0, %30 ], [ %28, %27 ]
  ret i32 %.0
}